; Function Attrs: mustprogress uwtable
define void @_ZN6icu_7716BytesTrieBuilder17BTLinearMatchNode5writeERNS_17StringTrieBuilderE(ptr noundef nonnull align 8 captures(none) dereferenceable(48) %0, ptr noundef nonnull align 8 dereferenceable(16) %1) unnamed_addr #1 align 2 {
  %3 = getelementptr inbounds nuw i8, ptr %0, i64 32
  %4 = load ptr, ptr %3, align 8, !tbaa !57
  %5 = load ptr, ptr %4, align 8, !tbaa !21
  %6 = getelementptr inbounds nuw i8, ptr %5, i64 40
  %7 = load ptr, ptr %6, align 8
  tail call void %7(ptr noundef nonnull align 8 dereferenceable(16) %4, ptr noundef nonnull align 8 dereferenceable(16) %1)
  %8 = getelementptr inbounds nuw i8, ptr %0, i64 40
  %9 = load ptr, ptr %8, align 8, !tbaa !58
  %10 = getelementptr inbounds nuw i8, ptr %0, i64 24
  %11 = load i32, ptr %10, align 8, !tbaa !54
  %12 = getelementptr inbounds nuw i8, ptr %1, i64 52
  %13 = load i32, ptr %12, align 4, !tbaa !32
  %14 = add nsw i32 %13, %11
  %15 = getelementptr inbounds nuw i8, ptr %1, i64 40
  %16 = load ptr, ptr %15, align 8, !tbaa !31
  %17 = icmp eq ptr %16, null
  br i1 %17, label %_ZN6icu_7716BytesTrieBuilder5writeEPKci.exit, label %18

18:                                               ; preds = %2
  %19 = getelementptr inbounds nuw i8, ptr %1, i64 48
  %20 = load i32, ptr %19, align 8, !tbaa !35
  %21 = icmp sgt i32 %14, %20
  br i1 %21, label %.preheader.i.i, label %_ZN6icu_7716BytesTrieBuilder14ensureCapacityEi.exit.thread7.i

.preheader.i.i:                                   ; preds = %18, %.preheader.i.i
  %.013.i.i = phi i32 [ %22, %.preheader.i.i ], [ %20, %18 ]
  %22 = shl nsw i32 %.013.i.i, 1
  %.not.i.i = icmp sgt i32 %22, %14
  br i1 %.not.i.i, label %23, label %.preheader.i.i, !llvm.loop !60

23:                                               ; preds = %.preheader.i.i
  %24 = sext i32 %22 to i64
  %25 = tail call noalias ptr @uprv_malloc_77(i64 noundef %24) #20
  %26 = icmp eq ptr %25, null
  br i1 %26, label %_ZN6icu_7716BytesTrieBuilder14ensureCapacityEi.exit.thread10.i, label %_ZN6icu_7716BytesTrieBuilder14ensureCapacityEi.exit.i

_ZN6icu_7716BytesTrieBuilder14ensureCapacityEi.exit.thread10.i: ; preds = %23
  %27 = load ptr, ptr %15, align 8, !tbaa !31
  tail call void @uprv_free_77(ptr noundef %27)
  store ptr null, ptr %15, align 8, !tbaa !31
  store i32 0, ptr %19, align 8, !tbaa !35
  br label %_ZN6icu_7716BytesTrieBuilder5writeEPKci.exit

_ZN6icu_7716BytesTrieBuilder14ensureCapacityEi.exit.i: ; preds = %23
  %28 = load i32, ptr %12, align 4, !tbaa !32
  %29 = sub nsw i32 %22, %28
  %30 = sext i32 %29 to i64
  %31 = getelementptr inbounds i8, ptr %25, i64 %30
  %32 = load ptr, ptr %15, align 8, !tbaa !31
  %33 = load i32, ptr %19, align 8, !tbaa !35
  %34 = sub nsw i32 %33, %28
  %35 = sext i32 %34 to i64
  %36 = getelementptr inbounds i8, ptr %32, i64 %35
  %37 = sext i32 %28 to i64
  tail call void @llvm.memcpy.p0.p0.i64(ptr nonnull align 1 %31, ptr align 1 %36, i64 %37, i1 false)
  tail call void @uprv_free_77(ptr noundef %32)
  store ptr %25, ptr %15, align 8, !tbaa !31
  store i32 %22, ptr %19, align 8, !tbaa !35
  br label %_ZN6icu_7716BytesTrieBuilder14ensureCapacityEi.exit.thread7.i

_ZN6icu_7716BytesTrieBuilder14ensureCapacityEi.exit.thread7.i: ; preds = %_ZN6icu_7716BytesTrieBuilder14ensureCapacityEi.exit.i, %18
  %38 = phi i32 [ %20, %18 ], [ %22, %_ZN6icu_7716BytesTrieBuilder14ensureCapacityEi.exit.i ]
  %39 = phi ptr [ %16, %18 ], [ %25, %_ZN6icu_7716BytesTrieBuilder14ensureCapacityEi.exit.i ]
  store i32 %14, ptr %12, align 4, !tbaa !32
  %40 = sub nsw i32 %38, %14
  %41 = sext i32 %40 to i64
  %42 = getelementptr inbounds i8, ptr %39, i64 %41
  %43 = sext i32 %11 to i64
  tail call void @llvm.memcpy.p0.p0.i64(ptr nonnull align 1 %42, ptr readonly align 1 %9, i64 %43, i1 false)
  br label %_ZN6icu_7716BytesTrieBuilder5writeEPKci.exit

_ZN6icu_7716BytesTrieBuilder5writeEPKci.exit:     ; preds = %2, %_ZN6icu_7716BytesTrieBuilder14ensureCapacityEi.exit.thread10.i, %_ZN6icu_7716BytesTrieBuilder14ensureCapacityEi.exit.thread7.i
  %44 = load ptr, ptr %1, align 8, !tbaa !21
  %45 = getelementptr inbounds nuw i8, ptr %44, i64 96
  %46 = load ptr, ptr %45, align 8
  %47 = tail call noundef i32 %46(ptr noundef nonnull align 8 dereferenceable(56) %1)
  %48 = load i32, ptr %10, align 8, !tbaa !54
  %49 = add i32 %47, -1
  %50 = add i32 %49, %48
  %51 = load ptr, ptr %1, align 8, !tbaa !21
  %52 = getelementptr inbounds nuw i8, ptr %51, i64 120
  %53 = load ptr, ptr %52, align 8
  %54 = tail call noundef i32 %53(ptr noundef nonnull align 8 dereferenceable(56) %1, i32 noundef %50)
  %55 = getelementptr inbounds nuw i8, ptr %0, i64 12
  store i32 %54, ptr %55, align 4, !tbaa !50
  ret void
}